target datalayout = "e-m:e-p270:32:32-p271:32:32-p272:64:64-i64:64-i128:128-f80:128-n8:16:32:64-S128"
target triple = "x86_64-pc-linux-gnu"

@.str.30 = private unnamed_addr constant [78 x i8] c"Parsing error: non-numeric argument, or extraneous/unrecognized suffix -- %s\0A\00", align 1
@.str.31 = private unnamed_addr constant [41 x i8] c"Parsing error: argument too large -- %s\0A\00", align 1
@.str.32 = private unnamed_addr constant [19 x i8] c"Parsing error: %s\0A\00", align 1
@.str.166 = private unnamed_addr constant [25 x i8] c"is_allocated failed: %s\0A\00", align 1
@.str.167 = private unnamed_addr constant [38 x i8] c"%ld/%ld bytes allocated at offset %s\0A\00", align 1

; Function Attrs: nounwind sspstrong uwtable
define internal void @print_cvtnum_err(i64 noundef %0, ptr noundef %1) #0 {
  %3 = alloca i64, align 8
  %4 = alloca ptr, align 8
  store i64 %0, ptr %3, align 8
  store ptr %1, ptr %4, align 8
  %5 = load i64, ptr %3, align 8
  switch i64 %5, label %12 [
    i64 -22, label %6
    i64 -34, label %9
  ]

6:                                                ; preds = %2
  %7 = load ptr, ptr %4, align 8
  %8 = call i32 (i32, ptr, ...) @__printf_chk(i32 noundef 1, ptr noundef @.str.30, ptr noundef %7)
  br label %15

9:                                                ; preds = %2
  %10 = load ptr, ptr %4, align 8
  %11 = call i32 (i32, ptr, ...) @__printf_chk(i32 noundef 1, ptr noundef @.str.31, ptr noundef %10)
  br label %15

12:                                               ; preds = %2
  %13 = load ptr, ptr %4, align 8
  %14 = call i32 (i32, ptr, ...) @__printf_chk(i32 noundef 1, ptr noundef @.str.32, ptr noundef %13)
  br label %15

15:                                               ; preds = %12, %9, %6
  ret void
}

; Function Attrs: nounwind sspstrong uwtable
define internal i64 @cvtnum(ptr noundef %0) #0 {
  %2 = alloca i64, align 8
  %3 = alloca ptr, align 8
  %4 = alloca i32, align 4
  %5 = alloca i64, align 8
  %6 = alloca i32, align 4
  store ptr %0, ptr %3, align 8
  call void @llvm.lifetime.start.p0(i64 4, ptr %4) #18
  store i32 0, ptr %4, align 4, !annotation !4
  call void @llvm.lifetime.start.p0(i64 8, ptr %5) #18
  store i64 0, ptr %5, align 8, !annotation !4
  %7 = load ptr, ptr %3, align 8
  %8 = call i32 @qemu_strtosz(ptr noundef %7, ptr noundef null, ptr noundef %5)
  store i32 %8, ptr %4, align 4
  %9 = load i32, ptr %4, align 4
  %10 = icmp slt i32 %9, 0
  br i1 %10, label %11, label %14

11:                                               ; preds = %1
  %12 = load i32, ptr %4, align 4
  %13 = sext i32 %12 to i64
  store i64 %13, ptr %2, align 8
  store i32 1, ptr %6, align 4
  br label %20

14:                                               ; preds = %1
  %15 = load i64, ptr %5, align 8
  %16 = icmp ugt i64 %15, 9223372036854775807
  br i1 %16, label %17, label %18

17:                                               ; preds = %14
  store i64 -34, ptr %2, align 8
  store i32 1, ptr %6, align 4
  br label %20

18:                                               ; preds = %14
  %19 = load i64, ptr %5, align 8
  store i64 %19, ptr %2, align 8
  store i32 1, ptr %6, align 4
  br label %20

20:                                               ; preds = %18, %17, %11
  call void @llvm.lifetime.end.p0(i64 8, ptr %5) #18
  call void @llvm.lifetime.end.p0(i64 4, ptr %4) #18
  %21 = load i64, ptr %2, align 8
  ret i64 %21
}

; Function Attrs: nounwind sspstrong uwtable
define internal i32 @alloc_f(ptr noundef %0, i32 noundef %1, ptr noundef %2) #0 {
  %4 = alloca i32, align 4
  %5 = alloca ptr, align 8
  %6 = alloca i32, align 4
  %7 = alloca ptr, align 8
  %8 = alloca ptr, align 8
  %9 = alloca i64, align 8
  %10 = alloca i64, align 8
  %11 = alloca i64, align 8
  %12 = alloca i64, align 8
  %13 = alloca [64 x i8], align 16
  %14 = alloca i32, align 4
  %15 = alloca i64, align 8
  %16 = alloca i64, align 8
  %17 = alloca i32, align 4
  store ptr %0, ptr %5, align 8
  store i32 %1, ptr %6, align 4
  store ptr %2, ptr %7, align 8
  call void @llvm.lifetime.start.p0(i64 8, ptr %8) #18
  %18 = load ptr, ptr %5, align 8
  %19 = call ptr @blk_bs(ptr noundef %18)
  store ptr %19, ptr %8, align 8
  call void @llvm.lifetime.start.p0(i64 8, ptr %9) #18
  store i64 0, ptr %9, align 8, !annotation !4
  call void @llvm.lifetime.start.p0(i64 8, ptr %10) #18
  store i64 0, ptr %10, align 8, !annotation !4
  call void @llvm.lifetime.start.p0(i64 8, ptr %11) #18
  store i64 0, ptr %11, align 8, !annotation !4
  call void @llvm.lifetime.start.p0(i64 8, ptr %12) #18
  store i64 0, ptr %12, align 8, !annotation !4
  call void @llvm.lifetime.start.p0(i64 64, ptr %13) #18
  call void @llvm.memset.p0.i64(ptr align 16 %13, i8 0, i64 64, i1 false), !annotation !4
  call void @llvm.lifetime.start.p0(i64 4, ptr %14) #18
  store i32 0, ptr %14, align 4, !annotation !4
  call void @llvm.lifetime.start.p0(i64 8, ptr %15) #18
  store i64 0, ptr %15, align 8, !annotation !4
  call void @llvm.lifetime.start.p0(i64 8, ptr %16) #18
  store i64 0, ptr %16, align 8, !annotation !4
  %20 = load ptr, ptr %7, align 8
  %21 = getelementptr inbounds ptr, ptr %20, i64 1
  %22 = load ptr, ptr %21, align 8
  %23 = call i64 @cvtnum(ptr noundef %22)
  store i64 %23, ptr %9, align 8
  store i64 %23, ptr %10, align 8
  %24 = load i64, ptr %9, align 8
  %25 = icmp slt i64 %24, 0
  br i1 %25, label %26, label %33

26:                                               ; preds = %3
  %27 = load i64, ptr %9, align 8
  %28 = load ptr, ptr %7, align 8
  %29 = getelementptr inbounds ptr, ptr %28, i64 1
  %30 = load ptr, ptr %29, align 8
  call void @print_cvtnum_err(i64 noundef %27, ptr noundef %30)
  %31 = load i64, ptr %9, align 8
  %32 = trunc i64 %31 to i32
  store i32 %32, ptr %4, align 4
  store i32 1, ptr %17, align 4
  br label %99

33:                                               ; preds = %3
  %34 = load i32, ptr %6, align 4
  %35 = icmp eq i32 %34, 3
  br i1 %35, label %36, label %51

36:                                               ; preds = %33
  %37 = load ptr, ptr %7, align 8
  %38 = getelementptr inbounds ptr, ptr %37, i64 2
  %39 = load ptr, ptr %38, align 8
  %40 = call i64 @cvtnum(ptr noundef %39)
  store i64 %40, ptr %12, align 8
  %41 = load i64, ptr %12, align 8
  %42 = icmp slt i64 %41, 0
  br i1 %42, label %43, label %50

43:                                               ; preds = %36
  %44 = load i64, ptr %12, align 8
  %45 = load ptr, ptr %7, align 8
  %46 = getelementptr inbounds ptr, ptr %45, i64 2
  %47 = load ptr, ptr %46, align 8
  call void @print_cvtnum_err(i64 noundef %44, ptr noundef %47)
  %48 = load i64, ptr %12, align 8
  %49 = trunc i64 %48 to i32
  store i32 %49, ptr %4, align 4
  store i32 1, ptr %17, align 4
  br label %99

50:                                               ; preds = %36
  br label %52

51:                                               ; preds = %33
  store i64 512, ptr %12, align 8
  br label %52

52:                                               ; preds = %51, %50
  %53 = load i64, ptr %12, align 8
  store i64 %53, ptr %11, align 8
  store i64 0, ptr %16, align 8
  br label %54

54:                                               ; preds = %90, %52
  %55 = load i64, ptr %11, align 8
  %56 = icmp ne i64 %55, 0
  br i1 %56, label %57, label %91

57:                                               ; preds = %54
  %58 = load ptr, ptr %8, align 8
  %59 = load i64, ptr %9, align 8
  %60 = load i64, ptr %11, align 8
  %61 = call i32 @bdrv_is_allocated(ptr noundef %58, i64 noundef %59, i64 noundef %60, ptr noundef %15)
  store i32 %61, ptr %14, align 4
  %62 = load i32, ptr %14, align 4
  %63 = icmp slt i32 %62, 0
  br i1 %63, label %64, label %70

64:                                               ; preds = %57
  %65 = load i32, ptr %14, align 4
  %66 = sub i32 0, %65
  %67 = call ptr @strerror(i32 noundef %66) #18
  %68 = call i32 (i32, ptr, ...) @__printf_chk(i32 noundef 1, ptr noundef @.str.166, ptr noundef %67)
  %69 = load i32, ptr %14, align 4
  store i32 %69, ptr %4, align 4
  store i32 1, ptr %17, align 4
  br label %99

70:                                               ; preds = %57
  %71 = load i64, ptr %15, align 8
  %72 = load i64, ptr %9, align 8
  %73 = add i64 %72, %71
  store i64 %73, ptr %9, align 8
  %74 = load i64, ptr %15, align 8
  %75 = load i64, ptr %11, align 8
  %76 = sub i64 %75, %74
  store i64 %76, ptr %11, align 8
  %77 = load i32, ptr %14, align 4
  %78 = icmp ne i32 %77, 0
  br i1 %78, label %79, label %83

79:                                               ; preds = %70
  %80 = load i64, ptr %15, align 8
  %81 = load i64, ptr %16, align 8
  %82 = add i64 %81, %80
  store i64 %82, ptr %16, align 8
  br label %83

83:                                               ; preds = %79, %70
  %84 = load i64, ptr %15, align 8
  %85 = icmp eq i64 %84, 0
  br i1 %85, label %86, label %90

86:                                               ; preds = %83
  %87 = load i64, ptr %11, align 8
  %88 = load i64, ptr %12, align 8
  %89 = sub i64 %88, %87
  store i64 %89, ptr %12, align 8
  store i64 0, ptr %11, align 8
  br label %90

90:                                               ; preds = %86, %83
  br label %54, !llvm.loop !30

91:                                               ; preds = %54
  %92 = load i64, ptr %10, align 8
  %93 = sitofp i64 %92 to double
  %94 = getelementptr inbounds [64 x i8], ptr %13, i64 0, i64 0
  call void @cvtstr(double noundef %93, ptr noundef %94, i64 noundef 64)
  %95 = load i64, ptr %16, align 8
  %96 = load i64, ptr %12, align 8
  %97 = getelementptr inbounds [64 x i8], ptr %13, i64 0, i64 0
  %98 = call i32 (i32, ptr, ...) @__printf_chk(i32 noundef 1, ptr noundef @.str.167, i64 noundef %95, i64 noundef %96, ptr noundef %97)
  store i32 0, ptr %4, align 4
  store i32 1, ptr %17, align 4
  br label %99

99:                                               ; preds = %91, %64, %43, %26
  call void @llvm.lifetime.end.p0(i64 8, ptr %16) #18
  call void @llvm.lifetime.end.p0(i64 8, ptr %15) #18
  call void @llvm.lifetime.end.p0(i64 4, ptr %14) #18
  call void @llvm.lifetime.end.p0(i64 64, ptr %13) #18
  call void @llvm.lifetime.end.p0(i64 8, ptr %12) #18
  call void @llvm.lifetime.end.p0(i64 8, ptr %11) #18
  call void @llvm.lifetime.end.p0(i64 8, ptr %10) #18
  call void @llvm.lifetime.end.p0(i64 8, ptr %9) #18
  call void @llvm.lifetime.end.p0(i64 8, ptr %8) #18
  %100 = load i32, ptr %4, align 4
  ret i32 %100
}