; Function Attrs: nounwind sspstrong uwtable
define internal range(i32 -2147483648, 1) i32 @alloc_f(ptr noundef %0, i32 noundef %1, ptr noundef readonly captures(none) %2) #0 {
  %4 = alloca i64, align 8
  %5 = alloca i64, align 8
  %6 = alloca [64 x i8], align 16
  %7 = alloca i64, align 8
  %8 = tail call ptr @blk_bs(ptr noundef %0) #26
  call void @llvm.lifetime.start.p0(i64 64, ptr nonnull %6) #26
  call void @llvm.memset.p0.i64(ptr noundef nonnull align 16 dereferenceable(64) %6, i8 0, i64 64, i1 false), !annotation !8
  call void @llvm.lifetime.start.p0(i64 8, ptr nonnull %7) #26
  store i64 0, ptr %7, align 8, !annotation !8
  %9 = getelementptr inbounds nuw i8, ptr %2, i64 8
  %10 = load ptr, ptr %9, align 8
  call void @llvm.lifetime.start.p0(i64 8, ptr nonnull %5) #26
  store i64 0, ptr %5, align 8, !annotation !8
  %11 = call i32 @qemu_strtosz(ptr noundef %10, ptr noundef null, ptr noundef nonnull %5) #26
  %12 = icmp slt i32 %11, 0
  %13 = sext i32 %11 to i64
  %14 = load i64, ptr %5, align 8
  %15 = icmp slt i64 %14, 0
  %..i = select i1 %15, i64 -34, i64 %14
  %.0.i = select i1 %12, i64 %13, i64 %..i
  call void @llvm.lifetime.end.p0(i64 8, ptr nonnull %5) #26
  %16 = icmp slt i64 %.0.i, 0
  br i1 %16, label %17, label %21

17:                                               ; preds = %3
  %18 = load ptr, ptr %9, align 8
  %switch.selectcmp.i = icmp eq i64 %.0.i, -34
  %switch.select.i = select i1 %switch.selectcmp.i, ptr @.str.31, ptr @.str.32
  %switch.selectcmp3.i = icmp eq i64 %.0.i, -22
  %switch.select4.i = select i1 %switch.selectcmp3.i, ptr @.str.30, ptr %switch.select.i
  %19 = call i32 (i32, ptr, ...) @__printf_chk(i32 noundef 1, ptr noundef nonnull %switch.select4.i, ptr noundef %18) #26
  %20 = trunc nsw i64 %.0.i to i32
  br label %51

21:                                               ; preds = %3
  %22 = icmp eq i32 %1, 3
  br i1 %22, label %23, label %.lr.ph.preheader

23:                                               ; preds = %21
  %24 = getelementptr inbounds nuw i8, ptr %2, i64 16
  %25 = load ptr, ptr %24, align 8
  call void @llvm.lifetime.start.p0(i64 8, ptr nonnull %4) #26
  store i64 0, ptr %4, align 8, !annotation !8
  %26 = call i32 @qemu_strtosz(ptr noundef %25, ptr noundef null, ptr noundef nonnull %4) #26
  %27 = icmp slt i32 %26, 0
  %28 = sext i32 %26 to i64
  %29 = load i64, ptr %4, align 8
  %30 = icmp slt i64 %29, 0
  %..i42 = select i1 %30, i64 -34, i64 %29
  %.0.i43 = select i1 %27, i64 %28, i64 %..i42
  call void @llvm.lifetime.end.p0(i64 8, ptr nonnull %4) #26
  %31 = icmp slt i64 %.0.i43, 0
  br i1 %31, label %32, label %36

32:                                               ; preds = %23
  %33 = load ptr, ptr %24, align 8
  %switch.selectcmp.i44 = icmp eq i64 %.0.i43, -34
  %switch.select.i45 = select i1 %switch.selectcmp.i44, ptr @.str.31, ptr @.str.32
  %switch.selectcmp3.i46 = icmp eq i64 %.0.i43, -22
  %switch.select4.i47 = select i1 %switch.selectcmp3.i46, ptr @.str.30, ptr %switch.select.i45
  %34 = call i32 (i32, ptr, ...) @__printf_chk(i32 noundef 1, ptr noundef nonnull %switch.select4.i47, ptr noundef %33) #26
  %35 = trunc nsw i64 %.0.i43 to i32
  br label %51

36:                                               ; preds = %23
  %.not52 = icmp eq i64 %.0.i43, 0
  br i1 %.not52, label %select.unfold._crit_edge, label %.lr.ph.preheader

.lr.ph.preheader:                                 ; preds = %21, %36
  %.03154.ph = phi i64 [ %.0.i43, %36 ], [ 512, %21 ]
  br label %.lr.ph

.lr.ph:                                           ; preds = %.lr.ph.preheader, %select.unfold
  %.056 = phi i64 [ %spec.select, %select.unfold ], [ 0, %.lr.ph.preheader ]
  %.13055 = phi i64 [ %spec.select49, %select.unfold ], [ %.03154.ph, %.lr.ph.preheader ]
  %.03154 = phi i64 [ %45, %select.unfold ], [ %.03154.ph, %.lr.ph.preheader ]
  %.03353 = phi i64 [ %44, %select.unfold ], [ %.0.i, %.lr.ph.preheader ]
  %37 = call i32 @bdrv_is_allocated(ptr noundef %8, i64 noundef %.03353, i64 noundef %.03154, ptr noundef nonnull %7) #26
  %38 = icmp slt i32 %37, 0
  br i1 %38, label %39, label %select.unfold

39:                                               ; preds = %.lr.ph
  %40 = sub i32 0, %37
  %41 = call ptr @strerror(i32 noundef %40) #26
  %42 = call i32 (i32, ptr, ...) @__printf_chk(i32 noundef 1, ptr noundef nonnull @.str.166, ptr noundef %41) #26
  br label %51

select.unfold:                                    ; preds = %.lr.ph
  %43 = load i64, ptr %7, align 8
  %44 = add i64 %43, %.03353
  %45 = sub i64 %.03154, %43
  %.not41 = icmp eq i32 %37, 0
  %46 = select i1 %.not41, i64 0, i64 %43
  %spec.select = add i64 %46, %.056
  %47 = icmp eq i64 %43, 0
  %48 = select i1 %47, i64 %.03154, i64 0
  %spec.select49 = sub i64 %.13055, %48
  %.not63 = icmp eq i64 %45, 0
  %.not = or i1 %47, %.not63
  br i1 %.not, label %select.unfold._crit_edge, label %.lr.ph

select.unfold._crit_edge:                         ; preds = %select.unfold, %36
  %.130.lcssa = phi i64 [ 0, %36 ], [ %spec.select49, %select.unfold ]
  %.0.lcssa = phi i64 [ 0, %36 ], [ %spec.select, %select.unfold ]
  %49 = uitofp nneg i64 %.0.i to double
  call fastcc void @cvtstr(double noundef %49, ptr noundef %6)
  %50 = call i32 (i32, ptr, ...) @__printf_chk(i32 noundef 1, ptr noundef nonnull @.str.167, i64 noundef %.0.lcssa, i64 noundef %.130.lcssa, ptr noundef nonnull %6) #26
  br label %51

51:                                               ; preds = %select.unfold._crit_edge, %39, %32, %17
  %.034 = phi i32 [ %20, %17 ], [ %35, %32 ], [ %37, %39 ], [ 0, %select.unfold._crit_edge ]
  call void @llvm.lifetime.end.p0(i64 8, ptr nonnull %7) #26
  call void @llvm.lifetime.end.p0(i64 64, ptr nonnull %6) #26
  ret i32 %.034
}